; Function Attrs: nounwind sspstrong uwtable
define internal i64 @time_cmp(i64 noundef %0, i64 noundef %1) #1 {
  %3 = tail call ptr @rb_check_typeddata(i64 noundef %0, ptr noundef nonnull @time_data_type) #21
  %4 = getelementptr inbounds nuw i8, ptr %3, i64 40
  %5 = load i64, ptr %4, align 8
  %6 = and i64 %5, 61572651155456
  %.not.i = icmp eq i64 %6, 26388279066624
  br i1 %.not.i, label %7, label %get_timeval.exit

7:                                                ; preds = %2
  %8 = load i64, ptr @rb_eTypeError, align 8, !tbaa !11
  %9 = tail call i64 @rb_obj_class(i64 noundef %0) #21
  tail call void (i64, ptr, ...) @rb_raise(i64 noundef %8, ptr noundef nonnull @.str.92, i64 noundef %9) #22
  unreachable

get_timeval.exit:                                 ; preds = %2
  %10 = tail call i32 @rb_typeddata_is_kind_of(i64 noundef %1, ptr noundef nonnull @time_data_type) #21
  %.not = icmp eq i32 %10, 0
  br i1 %.not, label %43, label %11

11:                                               ; preds = %get_timeval.exit
  %12 = tail call ptr @rb_check_typeddata(i64 noundef %1, ptr noundef nonnull @time_data_type) #21
  %13 = getelementptr inbounds nuw i8, ptr %12, i64 40
  %14 = load i64, ptr %13, align 8
  %15 = and i64 %14, 61572651155456
  %.not.i10 = icmp eq i64 %15, 26388279066624
  br i1 %.not.i10, label %16, label %get_timeval.exit11

16:                                               ; preds = %11
  %17 = load i64, ptr @rb_eTypeError, align 8, !tbaa !11
  %18 = tail call i64 @rb_obj_class(i64 noundef %1) #21
  tail call void (i64, ptr, ...) @rb_raise(i64 noundef %17, ptr noundef nonnull @.str.92, i64 noundef %18) #22
  unreachable

get_timeval.exit11:                               ; preds = %11
  %19 = load i64, ptr %3, align 8, !tbaa !25
  %20 = load i64, ptr %12, align 8, !tbaa !25
  %21 = and i64 %19, 1
  %22 = and i64 %21, %20
  %or.cond.not.i.i = icmp eq i64 %22, 0
  br i1 %or.cond.not.i.i, label %27, label %23

23:                                               ; preds = %get_timeval.exit11
  %24 = icmp slt i64 %19, %20
  br i1 %24, label %.thread, label %25

25:                                               ; preds = %23
  %26 = icmp sgt i64 %19, %20
  %..i.i = zext i1 %26 to i32
  br label %wcmp.exit

27:                                               ; preds = %get_timeval.exit11
  %28 = icmp eq i64 %19, 0
  %29 = and i64 %19, 7
  %30 = icmp ne i64 %29, 0
  %31 = or i1 %28, %30
  br i1 %31, label %rbimpl_RB_TYPE_P_fastpath.exit.thread.i.i, label %rbimpl_RB_TYPE_P_fastpath.exit.i.i

rbimpl_RB_TYPE_P_fastpath.exit.i.i:               ; preds = %27
  %32 = inttoptr i64 %19 to ptr
  %33 = load i64, ptr %32, align 8, !tbaa !15
  %34 = and i64 %33, 31
  %35 = icmp eq i64 %34, 10
  br i1 %35, label %36, label %rbimpl_RB_TYPE_P_fastpath.exit.thread.i.i

36:                                               ; preds = %rbimpl_RB_TYPE_P_fastpath.exit.i.i
  %37 = tail call i64 @rb_big_cmp(i64 noundef %19, i64 noundef %20) #21
  %38 = tail call i64 @rb_fix2int(i64 noundef %37) #21
  %39 = trunc i64 %38 to i32
  br label %wcmp.exit

rbimpl_RB_TYPE_P_fastpath.exit.thread.i.i:        ; preds = %rbimpl_RB_TYPE_P_fastpath.exit.i.i, %27
  %40 = tail call i64 (i64, i64, i32, ...) @rb_funcall(i64 noundef %19, i64 noundef 135, i32 noundef 1, i64 noundef %20) #21
  %41 = tail call i32 @rb_cmpint(i64 noundef %40, i64 noundef %19, i64 noundef %20) #21
  br label %wcmp.exit

wcmp.exit:                                        ; preds = %25, %36, %rbimpl_RB_TYPE_P_fastpath.exit.thread.i.i
  %.0.i.i = phi i32 [ %39, %36 ], [ %41, %rbimpl_RB_TYPE_P_fastpath.exit.thread.i.i ], [ %..i.i, %25 ]
  %.0.i.i.fr = freeze i32 %.0.i.i
  %42 = icmp eq i32 %.0.i.i.fr, 0
  br i1 %42, label %.thread, label %45

43:                                               ; preds = %get_timeval.exit
  %44 = tail call i64 @rb_invcmp(i64 noundef %0, i64 noundef %1) #21
  br label %.thread

45:                                               ; preds = %wcmp.exit
  %46 = icmp sgt i32 %.0.i.i.fr, 0
  %spec.select = select i1 %46, i64 3, i64 -1
  br label %.thread

.thread:                                          ; preds = %45, %23, %wcmp.exit, %43
  %.0 = phi i64 [ %44, %43 ], [ 1, %wcmp.exit ], [ -1, %23 ], [ %spec.select, %45 ]
  ret i64 %.0
}